target datalayout = "e-m:e-p270:32:32-p271:32:32-p272:64:64-i64:64-i128:128-f80:128-n8:16:32:64-S128"
target triple = "x86_64-pc-linux-gnu"

%struct._cairo_rectangle_int = type { i32, i32, i32, i32 }

; Function Attrs: nounwind uwtable
define void @dt_gui_widget_reallocate_now(ptr noundef %0) #0 {
  %2 = alloca ptr, align 8
  %3 = alloca %struct._cairo_rectangle_int, align 4
  store ptr %0, ptr %2, align 8, !tbaa !6
  call void @llvm.lifetime.start.p0(i64 16, ptr %3) #15
  call void @llvm.memset.p0.i64(ptr align 4 %3, i8 0, i64 16, i1 false)
  %4 = load ptr, ptr %2, align 8, !tbaa !6
  call void @gtk_widget_get_allocation(ptr noundef %4, ptr noundef %3)
  %5 = getelementptr inbounds nuw %struct._cairo_rectangle_int, ptr %3, i32 0, i32 2
  %6 = load i32, ptr %5, align 4, !tbaa !80
  %7 = icmp sgt i32 %6, 1
  br i1 %7, label %8, label %10

8:                                                ; preds = %1
  %9 = load ptr, ptr %2, align 8, !tbaa !6
  call void @gtk_widget_size_allocate(ptr noundef %9, ptr noundef %3)
  br label %10

10:                                               ; preds = %8, %1
  %11 = load ptr, ptr %2, align 8, !tbaa !6
  call void @gtk_widget_queue_resize(ptr noundef %11)
  call void @llvm.lifetime.end.p0(i64 16, ptr %3) #15
  ret void
}