; Function Attrs: nounwind uwtable
define void @dt_gui_widget_reallocate_now(ptr noundef %0) local_unnamed_addr #0 {
  %2 = alloca %struct._cairo_rectangle_int, align 4
  call void @llvm.lifetime.start.p0(i64 16, ptr nonnull %2) #18
  call void @llvm.memset.p0.i64(ptr noundef nonnull align 4 dereferenceable(16) %2, i8 0, i64 16, i1 false)
  call void @gtk_widget_get_allocation(ptr noundef %0, ptr noundef nonnull %2) #18
  %3 = getelementptr inbounds nuw i8, ptr %2, i64 8
  %4 = load i32, ptr %3, align 4, !tbaa !68
  %5 = icmp sgt i32 %4, 1
  br i1 %5, label %6, label %7

6:                                                ; preds = %1
  call void @gtk_widget_size_allocate(ptr noundef %0, ptr noundef nonnull %2) #18
  br label %7

7:                                                ; preds = %6, %1
  call void @gtk_widget_queue_resize(ptr noundef %0) #18
  call void @llvm.lifetime.end.p0(i64 16, ptr nonnull %2) #18
  ret void
}